target datalayout = "e-m:e-p270:32:32-p271:32:32-p272:64:64-i64:64-i128:128-f80:128-n8:16:32:64-S128"
target triple = "x86_64-pc-linux-gnu"

@REPEAT_TESTS = global i32 1, align 4
@VERBOSITY = global i32 0, align 4
@ERR_MSG = global i32 1, align 4
@QUICK = global i32 1, align 4
@WARN_ON_MISSING_DATA = global i32 0, align 4
@ICU_TRACE = global i32 -1, align 4
@WRITE_GOLDEN_DATA = global i32 0, align 4

; Function Attrs: nounwind uwtable
define i32 @getTestOption(i32 noundef %0) #0 {
  %2 = alloca i32, align 4
  %3 = alloca i32, align 4
  store i32 %0, ptr %3, align 4, !tbaa !18
  %4 = load i32, ptr %3, align 4, !tbaa !18
  switch i32 %4, label %19 [
    i32 2, label %5
    i32 5, label %7
    i32 4, label %9
    i32 1, label %11
    i32 3, label %13
    i32 6, label %15
    i32 7, label %17
  ]

5:                                                ; preds = %1
  %6 = load i32, ptr @VERBOSITY, align 4, !tbaa !18
  store i32 %6, ptr %2, align 4
  br label %20

7:                                                ; preds = %1
  %8 = load i32, ptr @WARN_ON_MISSING_DATA, align 4, !tbaa !18
  store i32 %8, ptr %2, align 4
  br label %20

9:                                                ; preds = %1
  %10 = load i32, ptr @QUICK, align 4, !tbaa !18
  store i32 %10, ptr %2, align 4
  br label %20

11:                                               ; preds = %1
  %12 = load i32, ptr @REPEAT_TESTS, align 4, !tbaa !18
  store i32 %12, ptr %2, align 4
  br label %20

13:                                               ; preds = %1
  %14 = load i32, ptr @ERR_MSG, align 4, !tbaa !18
  store i32 %14, ptr %2, align 4
  br label %20

15:                                               ; preds = %1
  %16 = load i32, ptr @ICU_TRACE, align 4, !tbaa !18
  store i32 %16, ptr %2, align 4
  br label %20

17:                                               ; preds = %1
  %18 = load i32, ptr @WRITE_GOLDEN_DATA, align 4, !tbaa !18
  store i32 %18, ptr %2, align 4
  br label %20

19:                                               ; preds = %1
  store i32 0, ptr %2, align 4
  br label %20

20:                                               ; preds = %19, %17, %15, %13, %11, %9, %7, %5
  %21 = load i32, ptr %2, align 4
  ret i32 %21
}