; Function Attrs: mustprogress nofree norecurse nosync nounwind willreturn memory(read, argmem: none, inaccessiblemem: none) uwtable
define i32 @getTestOption(i32 noundef %0) local_unnamed_addr #7 {
  switch i32 %0, label %16 [
    i32 2, label %2
    i32 5, label %4
    i32 4, label %6
    i32 1, label %8
    i32 3, label %10
    i32 6, label %12
    i32 7, label %14
  ]

2:                                                ; preds = %1
  %3 = load i32, ptr @VERBOSITY, align 4, !tbaa !18
  br label %16

4:                                                ; preds = %1
  %5 = load i32, ptr @WARN_ON_MISSING_DATA, align 4, !tbaa !18
  br label %16

6:                                                ; preds = %1
  %7 = load i32, ptr @QUICK, align 4, !tbaa !18
  br label %16

8:                                                ; preds = %1
  %9 = load i32, ptr @REPEAT_TESTS, align 4, !tbaa !18
  br label %16

10:                                               ; preds = %1
  %11 = load i32, ptr @ERR_MSG, align 4, !tbaa !18
  br label %16

12:                                               ; preds = %1
  %13 = load i32, ptr @ICU_TRACE, align 4, !tbaa !18
  br label %16

14:                                               ; preds = %1
  %15 = load i32, ptr @WRITE_GOLDEN_DATA, align 4, !tbaa !18
  br label %16

16:                                               ; preds = %1, %14, %12, %10, %8, %6, %4, %2
  %.0 = phi i32 [ %15, %14 ], [ %13, %12 ], [ %11, %10 ], [ %9, %8 ], [ %7, %6 ], [ %5, %4 ], [ %3, %2 ], [ 0, %1 ]
  ret i32 %.0
}